target datalayout = "e-m:e-p270:32:32-p271:32:32-p272:64:64-i64:64-i128:128-f80:128-n8:16:32:64-S128"
target triple = "x86_64-pc-linux-gnu"

@H5P_init_g = external global i8, align 1
@H5_libterm_g = external global i8, align 1

; Function Attrs: nounwind uwtable
define internal i32 @H5P__facc_libver_type_dec(ptr noundef %0, ptr noundef %1) #0 {
  %3 = alloca ptr, align 8
  %4 = alloca ptr, align 8
  %5 = alloca ptr, align 8
  %6 = alloca ptr, align 8
  store ptr %0, ptr %3, align 8, !tbaa !32
  store ptr %1, ptr %4, align 8, !tbaa !32
  call void @llvm.lifetime.start.p0(i64 8, ptr %5) #10
  %7 = load ptr, ptr %4, align 8, !tbaa !32
  store ptr %7, ptr %5, align 8, !tbaa !32
  call void @llvm.lifetime.start.p0(i64 8, ptr %6) #10
  %8 = load ptr, ptr %3, align 8, !tbaa !32
  store ptr %8, ptr %6, align 8, !tbaa !71
  %9 = load i8, ptr @H5P_init_g, align 1, !tbaa !22, !range !24, !noundef !25
  %10 = trunc i8 %9 to i1
  br i1 %10, label %15, label %11

11:                                               ; preds = %2
  %12 = load i8, ptr @H5_libterm_g, align 1, !tbaa !22, !range !24, !noundef !25
  %13 = trunc i8 %12 to i1
  %14 = xor i1 %13, true
  br label %15

15:                                               ; preds = %11, %2
  %16 = phi i1 [ true, %2 ], [ %14, %11 ]
  %17 = xor i1 %16, true
  %18 = xor i1 %17, true
  %19 = zext i1 %18 to i32
  %20 = sext i32 %19 to i64
  %21 = call i64 @llvm.expect.i64(i64 %20, i64 1)
  %22 = icmp ne i64 %21, 0
  br i1 %22, label %23, label %30

23:                                               ; preds = %15
  %24 = load ptr, ptr %6, align 8, !tbaa !71
  %25 = load ptr, ptr %24, align 8, !tbaa !26
  %26 = getelementptr inbounds nuw i8, ptr %25, i32 1
  store ptr %26, ptr %24, align 8, !tbaa !26
  %27 = load i8, ptr %25, align 1, !tbaa !27
  %28 = zext i8 %27 to i32
  %29 = load ptr, ptr %5, align 8, !tbaa !32
  store i32 %28, ptr %29, align 4, !tbaa !20
  br label %30

30:                                               ; preds = %23, %15
  call void @llvm.lifetime.end.p0(i64 8, ptr %6) #10
  call void @llvm.lifetime.end.p0(i64 8, ptr %5) #10
  ret i32 0
}